target datalayout = "e-m:e-p270:32:32-p271:32:32-p272:64:64-i64:64-i128:128-f80:128-n8:16:32:64-S128"
target triple = "x86_64-pc-linux-gnu"

%class.PhaseOutput = type <{ %class.Phase, %class.CodeBuffer, i32, [4 x i8], %class.ExceptionHandlerTable, %class.ImplicitExceptionTable, %class.C2CodeStubList, ptr, ptr, ptr, i32, i8, [3 x i8], i32, %class.CodeOffsets, i32, ptr, i32, i32, %class.ConstantTable, %class.BufferSizingData, ptr, i32, [4 x i8] }>
%class.Phase = type { i32, ptr }
%class.CodeBuffer = type { ptr, %class.CodeSection, %class.CodeSection, %class.CodeSection, ptr, ptr, ptr, i32, ptr, %class.OopRecorder, ptr, ptr, ptr, ptr, ptr, i8, i32 }
%class.CodeSection = type { ptr, ptr, ptr, ptr, ptr, ptr, ptr, ptr, i8, i8, i32, i8, ptr }
%class.OopRecorder = type { %class.ValueRecorder, %class.ValueRecorder.0, ptr }
%class.ValueRecorder = type <{ ptr, ptr, ptr, ptr, i8, [7 x i8] }>
%class.ValueRecorder.0 = type <{ ptr, ptr, ptr, ptr, i8, [7 x i8] }>
%class.ExceptionHandlerTable = type <{ ptr, i32, i32, %class.ReallocMark, [7 x i8] }>
%class.ReallocMark = type { i8 }
%class.ImplicitExceptionTable = type <{ i32, i32, ptr, %class.ReallocMark, [7 x i8] }>
%class.C2CodeStubList = type { %class.GrowableArray }
%class.GrowableArray = type { %class.GrowableArrayWithAllocator, %class.GrowableArrayMetadata }
%class.GrowableArrayWithAllocator = type { %class.GrowableArrayView }
%class.GrowableArrayView = type { %class.GrowableArrayBase, ptr }
%class.GrowableArrayBase = type { i32, i32 }
%class.GrowableArrayMetadata = type { i64 }
%class.CodeOffsets = type { [8 x i32] }
%class.ConstantTable = type <{ %class.GrowableArray.2, i32, i32, i32, [4 x i8] }>
%class.GrowableArray.2 = type { %class.GrowableArrayWithAllocator.3, %class.GrowableArrayMetadata }
%class.GrowableArrayWithAllocator.3 = type { %class.GrowableArrayView.4 }
%class.GrowableArrayView.4 = type { %class.GrowableArrayBase, ptr }
%class.BufferSizingData = type { i32, i32, i32, i32 }
%class.Compile = type <{ %class.Phase, i32, %class.Options, [4 x i8], ptr, i32, [4 x i8], ptr, ptr, ptr, ptr, ptr, i32, i32, i32, [4 x i8], i64, i8, i8, [2 x i8], i32, i8, i8, i8, i8, i8, i8, i8, i8, i8, [3 x i8], i32, i8, [3 x i8], [30 x i32], i8, [3 x i8], i32, i8, i8, i8, i8, i8, i8, i8, i8, i8, i8, i8, i8, i8, [3 x i8], i32, i32, [4 x i8], %class.Arena, ptr, ptr, ptr, ptr, %class.CHeapStringHolder, ptr, %class.GrowableArray.5, %class.GrowableArray.8, %class.GrowableArray.11, %class.GrowableArray.8, %class.GrowableArray.8, %class.GrowableArray.8, %class.GrowableArray.14, %class.GrowableArray.17, ptr, i32, i32, %class.VectorSet, %class.Arena, %class.Arena, ptr, ptr, ptr, ptr, ptr, ptr, ptr, ptr, ptr, %class.Arena, ptr, ptr, %class.CloneMap, i64, ptr, ptr, ptr, i32, i32, [64 x %"struct.Compile::AliasCacheEntry"], ptr, ptr, ptr, ptr, %class.GrowableArray.5, %class.GrowableArray.5, %class.GrowableArray.5, %class.GrowableArray.5, i32, i32, i8, [7 x i8], ptr, ptr, i32, [4 x i8], ptr, ptr, ptr, i32, i32, ptr, ptr, %class.RegMask, ptr, ptr, i32, [4 x i8], ptr, %class.TimeInstant, i32, [4 x i8] }>
%class.Options = type { i8, i8, i8, i8, i8, i8, i8, i8 }
%class.CHeapStringHolder = type { ptr }
%class.GrowableArray.11 = type { %class.GrowableArrayWithAllocator.12, %class.GrowableArrayMetadata }
%class.GrowableArrayWithAllocator.12 = type { %class.GrowableArrayView.13 }
%class.GrowableArrayView.13 = type { %class.GrowableArrayBase, ptr }
%class.GrowableArray.8 = type { %class.GrowableArrayWithAllocator.9, %class.GrowableArrayMetadata }
%class.GrowableArrayWithAllocator.9 = type { %class.GrowableArrayView.10 }
%class.GrowableArrayView.10 = type { %class.GrowableArrayBase, ptr }
%class.GrowableArray.14 = type { %class.GrowableArrayWithAllocator.15, %class.GrowableArrayMetadata }
%class.GrowableArrayWithAllocator.15 = type { %class.GrowableArrayView.16 }
%class.GrowableArrayView.16 = type { %class.GrowableArrayBase, ptr }
%class.GrowableArray.17 = type { %class.GrowableArrayWithAllocator.18, %class.GrowableArrayMetadata }
%class.GrowableArrayWithAllocator.18 = type { %class.GrowableArrayView.19 }
%class.GrowableArrayView.19 = type { %class.GrowableArrayBase, ptr }
%class.VectorSet = type { i32, ptr, i32, ptr }
%class.Arena = type { i8, i8, i64, ptr, ptr, ptr, ptr }
%class.CloneMap = type <{ i8, [7 x i8], ptr, i32, [4 x i8] }>
%"struct.Compile::AliasCacheEntry" = type { ptr, i32 }
%class.GrowableArray.5 = type { %class.GrowableArrayWithAllocator.6, %class.GrowableArrayMetadata }
%class.GrowableArrayWithAllocator.6 = type { %class.GrowableArrayView.7 }
%class.GrowableArrayView.7 = type { %class.GrowableArrayBase, ptr }
%class.RegMask = type { %union.anon, i32, i32 }
%union.anon = type { [11 x i64] }
%class.TimeInstant = type { %class.CompositeCounterRepresentation }
%class.CompositeCounterRepresentation = type { %class.Representation }
%class.Representation = type { %class.PairRep }
%class.PairRep = type { i64, i64 }
%class.BarrierSet = type { ptr, %class.FakeRttiSupport, ptr, ptr, ptr, ptr, ptr }
%class.FakeRttiSupport = type <{ i64, i32, [4 x i8] }>
%class.ciEnv = type <{ ptr, %class.Arena, ptr, ptr, ptr, ptr, %class.CHeapStringHolder, i8, [3 x i8], i32, i8, [3 x i8], i32, ptr, ptr, ptr, ptr, i32, [4 x i8], i64, i8, i8, i8, i8, i8, i8, i8, i8, ptr, ptr, ptr, ptr, ptr, ptr, ptr, ptr, ptr, [1025 x i8], [7 x i8] }>

@.str.7 = private unnamed_addr constant [18 x i8] c"CodeCache is full\00", align 1
@_ZN10BarrierSet12_barrier_setE = external global ptr, align 8
@UseCompiler = external global i8, align 1
@_ZN13CompileBroker24_should_compile_new_jobsE = external global i32, align 4

; Function Attrs: mustprogress nounwind uwtable
define linkonce_odr hidden noundef ptr @_ZN5ciEnv12oop_recorderEv(ptr noundef nonnull align 8 dereferenceable(1265) %0) #1 comdat align 2 {
  %2 = alloca ptr, align 8
  store ptr %0, ptr %2, align 8
  %3 = load ptr, ptr %2, align 8
  %4 = getelementptr inbounds %class.ciEnv, ptr %3, i32 0, i32 3
  %5 = load ptr, ptr %4, align 8
  ret ptr %5
}

; Function Attrs: mustprogress nounwind uwtable
define linkonce_odr hidden noundef ptr @_ZNK7Compile3envEv(ptr noundef nonnull align 8 dereferenceable(2316) %0) #1 comdat align 2 {
  %2 = alloca ptr, align 8
  store ptr %0, ptr %2, align 8
  %3 = load ptr, ptr %2, align 8
  %4 = getelementptr inbounds %class.Compile, ptr %3, i32 0, i32 57
  %5 = load ptr, ptr %4, align 8
  ret ptr %5
}

; Function Attrs: mustprogress nounwind uwtable
define linkonce_odr hidden void @_ZN10CodeBuffer21initialize_stubs_sizeEi(ptr noundef nonnull align 8 dereferenceable(448) %0, i32 noundef %1) #1 comdat align 2 {
  %3 = alloca ptr, align 8
  %4 = alloca i32, align 4
  store ptr %0, ptr %3, align 8
  store i32 %1, ptr %4, align 4
  %5 = load ptr, ptr %3, align 8
  %6 = getelementptr inbounds %class.CodeBuffer, ptr %5, i32 0, i32 3
  %7 = load i32, ptr %4, align 4
  call void @_ZN10CodeBuffer23initialize_section_sizeEP11CodeSectioni(ptr noundef nonnull align 8 dereferenceable(448) %5, ptr noundef %6, i32 noundef %7)
  ret void
}

; Function Attrs: mustprogress nounwind uwtable
define linkonce_odr hidden void @_ZN10CodeBuffer22initialize_consts_sizeEi(ptr noundef nonnull align 8 dereferenceable(448) %0, i32 noundef %1) #1 comdat align 2 {
  %3 = alloca ptr, align 8
  %4 = alloca i32, align 4
  store ptr %0, ptr %3, align 8
  store i32 %1, ptr %4, align 4
  %5 = load ptr, ptr %3, align 8
  %6 = getelementptr inbounds %class.CodeBuffer, ptr %5, i32 0, i32 1
  %7 = load i32, ptr %4, align 4
  call void @_ZN10CodeBuffer23initialize_section_sizeEP11CodeSectioni(ptr noundef nonnull align 8 dereferenceable(448) %5, ptr noundef %6, i32 noundef %7)
  ret void
}

; Function Attrs: mustprogress nounwind uwtable
define linkonce_odr hidden noundef zeroext i1 @_ZN13CompileBroker23should_compile_new_jobsEv() #1 comdat align 2 {
  %1 = load i8, ptr @UseCompiler, align 1
  %2 = trunc i8 %1 to i1
  br i1 %2, label %3, label %6

3:                                                ; preds = %0
  %4 = load volatile i32, ptr @_ZN13CompileBroker24_should_compile_new_jobsE, align 4
  %5 = icmp eq i32 %4, 1
  br label %6

6:                                                ; preds = %3, %0
  %7 = phi i1 [ false, %0 ], [ %5, %3 ]
  ret i1 %7
}

; Function Attrs: mustprogress nounwind uwtable
define linkonce_odr hidden noundef ptr @_ZNK10CodeBuffer4blobEv(ptr noundef nonnull align 8 dereferenceable(448) %0) #1 comdat align 2 {
  %2 = alloca ptr, align 8
  store ptr %0, ptr %2, align 8
  %3 = load ptr, ptr %2, align 8
  %4 = getelementptr inbounds %class.CodeBuffer, ptr %3, i32 0, i32 5
  %5 = load ptr, ptr %4, align 8
  ret ptr %5
}

; Function Attrs: mustprogress nounwind uwtable
define linkonce_odr hidden noundef ptr @_ZN11PhaseOutput11code_bufferEv(ptr noundef nonnull align 8 dereferenceable(700) %0) #1 comdat align 2 {
  %2 = alloca ptr, align 8
  store ptr %0, ptr %2, align 8
  %3 = load ptr, ptr %2, align 8
  %4 = getelementptr inbounds %class.PhaseOutput, ptr %3, i32 0, i32 1
  ret ptr %4
}

; Function Attrs: mustprogress nounwind uwtable
define linkonce_odr hidden noundef zeroext i1 @_ZNK7Compile25has_method_handle_invokesEv(ptr noundef nonnull align 8 dereferenceable(2316) %0) #1 comdat align 2 {
  %2 = alloca ptr, align 8
  store ptr %0, ptr %2, align 8
  %3 = load ptr, ptr %2, align 8
  %4 = getelementptr inbounds %class.Compile, ptr %3, i32 0, i32 48
  %5 = load i8, ptr %4, align 2
  %6 = trunc i8 %5 to i1
  ret i1 %6
}

; Function Attrs: mustprogress nounwind uwtable
define linkonce_odr hidden noundef i32 @_ZN11HandlerImpl18size_deopt_handlerEv() #1 comdat align 2 {
  ret i32 18
}

; Function Attrs: mustprogress nounwind uwtable
define linkonce_odr hidden noundef i32 @_ZN11HandlerImpl22size_exception_handlerEv() #1 comdat align 2 {
  ret i32 5
}

; Function Attrs: mustprogress nounwind uwtable
define linkonce_odr hidden noundef ptr @_ZN10BarrierSet14barrier_set_c2Ev(ptr noundef nonnull align 8 dereferenceable(64) %0) #1 comdat align 2 {
  %2 = alloca ptr, align 8
  store ptr %0, ptr %2, align 8
  %3 = load ptr, ptr %2, align 8
  %4 = getelementptr inbounds %class.BarrierSet, ptr %3, i32 0, i32 4
  %5 = load ptr, ptr %4, align 8
  ret ptr %5
}

; Function Attrs: mustprogress nounwind uwtable
define linkonce_odr hidden noundef ptr @_ZN10BarrierSet11barrier_setEv() #1 comdat align 2 {
  %1 = load ptr, ptr @_ZN10BarrierSet12_barrier_setE, align 8
  ret ptr %1
}

; Function Attrs: mustprogress nounwind uwtable
define linkonce_odr hidden noundef i32 @_ZN10NativeCall9byte_sizeEv() #1 comdat align 2 {
  ret i32 5
}

; Function Attrs: mustprogress nounwind uwtable
define hidden noundef ptr @_ZN11PhaseOutput11init_bufferEv(ptr noundef nonnull align 8 dereferenceable(700) %0) #1 align 2 {
  %2 = alloca ptr, align 8
  %3 = alloca ptr, align 8
  %4 = alloca i32, align 4
  %5 = alloca i32, align 4
  %6 = alloca i32, align 4
  %7 = alloca i32, align 4
  %8 = alloca ptr, align 8
  %9 = alloca i32, align 4
  %10 = alloca i32, align 4
  %11 = alloca i32, align 4
  %12 = alloca ptr, align 8
  %13 = alloca [1 x ptr], align 8
  store ptr %0, ptr %3, align 8
  %14 = load ptr, ptr %3, align 8
  %15 = getelementptr inbounds %class.PhaseOutput, ptr %14, i32 0, i32 20
  %16 = getelementptr inbounds %class.BufferSizingData, ptr %15, i32 0, i32 0
  %17 = load i32, ptr %16, align 8
  store i32 %17, ptr %4, align 4
  %18 = getelementptr inbounds %class.PhaseOutput, ptr %14, i32 0, i32 20
  %19 = getelementptr inbounds %class.BufferSizingData, ptr %18, i32 0, i32 1
  %20 = load i32, ptr %19, align 4
  store i32 %20, ptr %5, align 4
  %21 = getelementptr inbounds %class.PhaseOutput, ptr %14, i32 0, i32 20
  %22 = getelementptr inbounds %class.BufferSizingData, ptr %21, i32 0, i32 2
  %23 = load i32, ptr %22, align 8
  store i32 %23, ptr %6, align 4
  %24 = call noundef i32 @_ZN10NativeCall9byte_sizeEv()
  store i32 %24, ptr %7, align 4
  %25 = call noundef ptr @_ZN10BarrierSet11barrier_setEv()
  %26 = call noundef ptr @_ZN10BarrierSet14barrier_set_c2Ev(ptr noundef nonnull align 8 dereferenceable(64) %25)
  store ptr %26, ptr %8, align 8
  %27 = load ptr, ptr %8, align 8
  %28 = load ptr, ptr %27, align 8
  %29 = getelementptr inbounds ptr, ptr %28, i64 42
  %30 = load ptr, ptr %29, align 8
  %31 = call noundef i32 %30(ptr noundef nonnull align 8 dereferenceable(8) %27)
  %32 = load i32, ptr %4, align 4
  %33 = add nsw i32 %32, %31
  store i32 %33, ptr %4, align 4
  %34 = call noundef i32 @_ZN11HandlerImpl22size_exception_handlerEv()
  %35 = add i32 %34, 128
  store i32 %35, ptr %9, align 4
  %36 = call noundef i32 @_ZN11HandlerImpl18size_deopt_handlerEv()
  %37 = add i32 %36, 128
  store i32 %37, ptr %10, align 4
  %38 = load i32, ptr %4, align 4
  %39 = add nsw i32 %38, 128
  store i32 %39, ptr %4, align 4
  %40 = load i32, ptr %5, align 4
  %41 = add nsw i32 %40, 2048
  store i32 %41, ptr %5, align 4
  %42 = load i32, ptr %6, align 4
  %43 = load i32, ptr %5, align 4
  %44 = add nsw i32 %42, %43
  %45 = load i32, ptr %7, align 4
  %46 = add nsw i32 %44, %45
  %47 = load i32, ptr %4, align 4
  %48 = add nsw i32 %46, %47
  %49 = load i32, ptr %9, align 4
  %50 = add nsw i32 %48, %49
  %51 = load i32, ptr %10, align 4
  %52 = add nsw i32 %50, %51
  store i32 %52, ptr %11, align 4
  %53 = getelementptr inbounds %class.Phase, ptr %14, i32 0, i32 1
  %54 = load ptr, ptr %53, align 8
  %55 = call noundef zeroext i1 @_ZNK7Compile25has_method_handle_invokesEv(ptr noundef nonnull align 8 dereferenceable(2316) %54)
  br i1 %55, label %56, label %60

56:                                               ; preds = %1
  %57 = load i32, ptr %10, align 4
  %58 = load i32, ptr %11, align 4
  %59 = add nsw i32 %58, %57
  store i32 %59, ptr %11, align 4
  br label %60

60:                                               ; preds = %56, %1
  %61 = call noundef ptr @_ZN11PhaseOutput11code_bufferEv(ptr noundef nonnull align 8 dereferenceable(700) %14)
  store ptr %61, ptr %12, align 8
  %62 = load ptr, ptr %12, align 8
  %63 = load i32, ptr %11, align 4
  %64 = getelementptr inbounds %class.PhaseOutput, ptr %14, i32 0, i32 20
  %65 = getelementptr inbounds %class.BufferSizingData, ptr %64, i32 0, i32 3
  %66 = load i32, ptr %65, align 4
  call void @_ZN10CodeBuffer10initializeEii(ptr noundef nonnull align 8 dereferenceable(448) %62, i32 noundef %63, i32 noundef %66)
  %67 = load ptr, ptr %12, align 8
  %68 = call noundef ptr @_ZNK10CodeBuffer4blobEv(ptr noundef nonnull align 8 dereferenceable(448) %67)
  %69 = icmp eq ptr %68, null
  br i1 %69, label %72, label %70

70:                                               ; preds = %60
  %71 = call noundef zeroext i1 @_ZN13CompileBroker23should_compile_new_jobsEv()
  br i1 %71, label %75, label %72

72:                                               ; preds = %70, %60
  %73 = getelementptr inbounds %class.Phase, ptr %14, i32 0, i32 1
  %74 = load ptr, ptr %73, align 8
  call void @_ZN7Compile14record_failureEPKc(ptr noundef nonnull align 8 dereferenceable(2316) %74, ptr noundef @.str.7)
  store ptr null, ptr %2, align 8
  br label %87

75:                                               ; preds = %70
  %76 = load ptr, ptr %12, align 8
  %77 = load i32, ptr %6, align 4
  call void @_ZN10CodeBuffer22initialize_consts_sizeEi(ptr noundef nonnull align 8 dereferenceable(448) %76, i32 noundef %77)
  %78 = load ptr, ptr %12, align 8
  %79 = load i32, ptr %4, align 4
  call void @_ZN10CodeBuffer21initialize_stubs_sizeEi(ptr noundef nonnull align 8 dereferenceable(448) %78, i32 noundef %79)
  %80 = load ptr, ptr %12, align 8
  %81 = getelementptr inbounds %class.Phase, ptr %14, i32 0, i32 1
  %82 = load ptr, ptr %81, align 8
  %83 = call noundef ptr @_ZNK7Compile3envEv(ptr noundef nonnull align 8 dereferenceable(2316) %82)
  %84 = call noundef ptr @_ZN5ciEnv12oop_recorderEv(ptr noundef nonnull align 8 dereferenceable(1265) %83)
  call void @_ZN10CodeBuffer23initialize_oop_recorderEP11OopRecorder(ptr noundef nonnull align 8 dereferenceable(448) %80, ptr noundef %84)
  %85 = getelementptr inbounds [1 x ptr], ptr %13, i64 0, i64 0
  call void @_ZN6Bundle15initialize_nopsEPP8MachNode(ptr noundef %85)
  %86 = load ptr, ptr %12, align 8
  store ptr %86, ptr %2, align 8
  br label %87

87:                                               ; preds = %75, %72
  %88 = load ptr, ptr %2, align 8
  ret ptr %88
}