; Function Attrs: mustprogress nounwind uwtable
define hidden noundef ptr @_ZN11PhaseOutput11init_bufferEv(ptr noundef nonnull align 8 dereferenceable(700) %0) local_unnamed_addr #0 align 2 {
  %2 = alloca [1 x ptr], align 8
  %3 = getelementptr inbounds i8, ptr %0, i64 672
  %4 = load i32, ptr %3, align 8
  %5 = getelementptr inbounds i8, ptr %0, i64 676
  %6 = load i32, ptr %5, align 4
  %7 = getelementptr inbounds i8, ptr %0, i64 680
  %8 = load i32, ptr %7, align 8
  %9 = load ptr, ptr @_ZN10BarrierSet12_barrier_setE, align 8
  %10 = getelementptr inbounds i8, ptr %9, i64 40
  %11 = load ptr, ptr %10, align 8
  %12 = load ptr, ptr %11, align 8
  %13 = getelementptr inbounds i8, ptr %12, i64 336
  %14 = load ptr, ptr %13, align 8
  %15 = tail call noundef i32 %14(ptr noundef nonnull align 8 dereferenceable(8) %11) #14
  %16 = add i32 %4, 128
  %17 = add i32 %16, %15
  %18 = getelementptr inbounds i8, ptr %0, i64 8
  %19 = load ptr, ptr %18, align 8
  %20 = getelementptr inbounds i8, ptr %19, i64 278
  %21 = load i8, ptr %20, align 2
  %22 = trunc i8 %21 to i1
  %spec.select.v = select i1 %22, i32 425, i32 279
  %23 = add i32 %6, 2053
  %24 = add i32 %23, %8
  %25 = add nsw i32 %24, %17
  %spec.select = add nsw i32 %25, %spec.select.v
  %26 = getelementptr inbounds i8, ptr %0, i64 16
  %27 = getelementptr inbounds i8, ptr %0, i64 684
  %28 = load i32, ptr %27, align 4
  tail call void @_ZN10CodeBuffer10initializeEii(ptr noundef nonnull align 8 dereferenceable(448) %26, i32 noundef %spec.select, i32 noundef %28) #14
  %29 = getelementptr inbounds i8, ptr %0, i64 296
  %30 = load ptr, ptr %29, align 8
  %31 = icmp eq ptr %30, null
  br i1 %31, label %_ZN13CompileBroker23should_compile_new_jobsEv.exit.thread, label %32

32:                                               ; preds = %1
  %33 = load i8, ptr @UseCompiler, align 1
  %34 = trunc i8 %33 to i1
  br i1 %34, label %_ZN13CompileBroker23should_compile_new_jobsEv.exit, label %_ZN13CompileBroker23should_compile_new_jobsEv.exit.thread

_ZN13CompileBroker23should_compile_new_jobsEv.exit: ; preds = %32
  %35 = load volatile i32, ptr @_ZN13CompileBroker24_should_compile_new_jobsE, align 4
  %36 = icmp eq i32 %35, 1
  br i1 %36, label %38, label %_ZN13CompileBroker23should_compile_new_jobsEv.exit.thread

_ZN13CompileBroker23should_compile_new_jobsEv.exit.thread: ; preds = %32, %_ZN13CompileBroker23should_compile_new_jobsEv.exit, %1
  %37 = load ptr, ptr %18, align 8
  tail call void @_ZN7Compile14record_failureEPKc(ptr noundef nonnull align 8 dereferenceable(2316) %37, ptr noundef nonnull @.str.7) #14
  br label %46

38:                                               ; preds = %_ZN13CompileBroker23should_compile_new_jobsEv.exit
  %39 = getelementptr inbounds i8, ptr %0, i64 24
  tail call void @_ZN10CodeBuffer23initialize_section_sizeEP11CodeSectioni(ptr noundef nonnull align 8 dereferenceable(448) %26, ptr noundef nonnull %39, i32 noundef %8) #14
  %40 = getelementptr inbounds i8, ptr %0, i64 200
  tail call void @_ZN10CodeBuffer23initialize_section_sizeEP11CodeSectioni(ptr noundef nonnull align 8 dereferenceable(448) %26, ptr noundef nonnull %40, i32 noundef %17) #14
  %41 = load ptr, ptr %18, align 8
  %42 = getelementptr inbounds i8, ptr %41, i64 352
  %43 = load ptr, ptr %42, align 8
  %44 = getelementptr inbounds i8, ptr %43, i64 64
  %45 = load ptr, ptr %44, align 8
  tail call void @_ZN10CodeBuffer23initialize_oop_recorderEP11OopRecorder(ptr noundef nonnull align 8 dereferenceable(448) %26, ptr noundef %45) #14
  call void @_ZN6Bundle15initialize_nopsEPP8MachNode(ptr noundef nonnull %2) #14
  br label %46

46:                                               ; preds = %38, %_ZN13CompileBroker23should_compile_new_jobsEv.exit.thread
  %.0 = phi ptr [ null, %_ZN13CompileBroker23should_compile_new_jobsEv.exit.thread ], [ %26, %38 ]
  ret ptr %.0
}